; Function Attrs: mustprogress nofree norecurse nosync nounwind willreturn memory(read, inaccessiblemem: none) uwtable
define noundef double @_ZNK6casadi9Sqpmethod12calc_gamma_1EPNS_15SqpmethodMemoryE(ptr noundef nonnull readonly align 8 captures(none) dereferenceable(2386) %0, ptr noundef readonly captures(none) %1) local_unnamed_addr #14 align 2 {
  %3 = getelementptr inbounds nuw i8, ptr %0, i64 2112
  %4 = load double, ptr %3, align 8, !tbaa !152
  %5 = getelementptr inbounds nuw i8, ptr %0, i64 1648
  %6 = load i64, ptr %5, align 8, !tbaa !182
  %7 = icmp sgt i64 %6, 0
  br i1 %7, label %.lr.ph.i.preheader, label %_ZN6casadi15casadi_norm_infIdEET_xPKS1_.exit

.lr.ph.i.preheader:                               ; preds = %2
  %8 = getelementptr inbounds nuw i8, ptr %1, i64 448
  %9 = load ptr, ptr %8, align 8, !tbaa !254
  br label %.lr.ph.i

.lr.ph.i:                                         ; preds = %.lr.ph.i.preheader, %.lr.ph.i
  %.09.i = phi double [ %13, %.lr.ph.i ], [ 0.000000e+00, %.lr.ph.i.preheader ]
  %.058.i = phi i64 [ %14, %.lr.ph.i ], [ 0, %.lr.ph.i.preheader ]
  %.067.i = phi ptr [ %10, %.lr.ph.i ], [ %9, %.lr.ph.i.preheader ]
  %10 = getelementptr inbounds nuw i8, ptr %.067.i, i64 8
  %11 = load double, ptr %.067.i, align 8, !tbaa !271
  %12 = tail call double @llvm.fabs.f64(double %11)
  %13 = tail call double @llvm.maxnum.f64(double %.09.i, double %12)
  %14 = add nuw nsw i64 %.058.i, 1
  %exitcond.not.i = icmp eq i64 %14, %6
  br i1 %exitcond.not.i, label %_ZN6casadi15casadi_norm_infIdEET_xPKS1_.exit, label %.lr.ph.i, !llvm.loop !289

_ZN6casadi15casadi_norm_infIdEET_xPKS1_.exit:     ; preds = %.lr.ph.i, %2
  %.0.lcssa.i = phi double [ 0.000000e+00, %2 ], [ %13, %.lr.ph.i ]
  %15 = fmul double %4, %.0.lcssa.i
  %16 = getelementptr inbounds nuw i8, ptr %0, i64 2128
  %17 = load double, ptr %16, align 8, !tbaa !271
  %18 = fcmp olt double %15, %17
  %.sroa.speculated = select i1 %18, double %17, double %15
  ret double %.sroa.speculated
}